-----BEGIN PRIVATE KEY-----
MIICdwIBADANBgkqhkiG9w0BAQEFAASCAmEwggJdAgEAAoGBAO3Lvn9OiHxfA/Kz
mAwyKhfqLjgBSWrQjCrfdUQBiceSyWanPd0j5clbI9vMM/YhWhedB1M+Cp88zvYU
IHxTmQkfidTFNRvMxFT1A0gXnuVgsMszUsoiN69P4ED+oljPNODz+3MX2QJRG0VW
ocSI8b4ZxcjvCGuKAuaQcHjh9+KDAgMBAAECgYEAp6EkBexfjIUSbGmr+pT2VWtw
72wAzDp9RM/Hg4wuCzDvptyoYJaoqrwD2DLoQk6aiuDYRBcNN9mO76uahuoLiyX/
ZXydrK3k0NC1+6i+3b4YZ8A50lyUjSbttXwNsDLDXiAlWWm5AjpS8S3cErRcVrst
dmWfGM/n+JjbCon4vBkCQQD5Bcxp2TgKt5WAvn7ReSdz7FLAKuvfq3w/nM7iTc77
SAvgjeGw5F8sIHdmQsV/FhmgVymZ1Npnlt42tVJlTEKNAkEA9HVq7hWuMt9ShX30
BUuaPri+/1oDYlJW2g3hvB3bIcx0mCvj2ZcvOEG6x0abKSNYftbccl4o+y+GZIQt
0tL9TwJAfJq7KyfHFA3CoDYxzO07oZTZ31Ba0IPFWytClhhq/m+Rid5U1Segu7rP
I/s7SZksX3/d0Byi4HysWmGmhgt/rQJBAJic3R65pkDYLppsIXVU13yktYiQ12AA
a3xCAlUAhpc5HukJLXvf6HjEgCh8Kc2q5Up6NLGpmwgFiW8jHcBqO/0CQBXDxzdq
ByPxY8nNagmSrNz+tWRf+DZLUcebfmAEcXQp7kVqn1TM62EsRf3q8cIG3qcP3Bd8
NzIjvLVMr9xpzjU=
-----END PRIVATE KEY-----
Certificate:
    Data:
        Version: 1 (0x0)
        Serial Number:
            0f:bd:48:61:39:7a:34:c6:a8:9d:aa:49:ba:fa:66:00:78:e6:34:92
        Signature Algorithm: sha1WithRSAEncryption
        Issuer: C=XY, O=Python Software Foundation CA, CN=our-ca-server
        Validity
            Not Before: Oct 20 02:59:54 2020 GMT
            Not After : Aug 29 02:59:54 2030 GMT
        Subject: C=XY, L=Castle Anthrax, O=Python Software Foundation, CN=localhost
        Subject Public Key Info:
            Public Key Algorithm: rsaEncryption
                RSA Public-Key: (1024 bit)
                Modulus:
                    00:ed:cb:be:7f:4e:88:7c:5f:03:f2:b3:98:0c:32:
                    2a:17:ea:2e:38:01:49:6a:d0:8c:2a:df:75:44:01:
                    89:c7:92:c9:66:a7:3d:dd:23:e5:c9:5b:23:db:cc:
                    33:f6:21:5a:17:9d:07:53:3e:0a:9f:3c:ce:f6:14:
                    20:7c:53:99:09:1f:89:d4:c5:35:1b:cc:c4:54:f5:
                    03:48:17:9e:e5:60:b0:cb:33:52:ca:22:37:af:4f:
                    e0:40:fe:a2:58:cf:34:e0:f3:fb:73:17:d9:02:51:
                    1b:45:56:a1:c4:88:f1:be:19:c5:c8:ef:08:6b:8a:
                    02:e6:90:70:78:e1:f7:e2:83
                Exponent: 65537 (0x10001)
    Signature Algorithm: sha1WithRSAEncryption
         03:2e:4b:4b:84:a8:57:33:69:45:00:b0:10:fa:01:21:64:27:
         ef:0b:fa:96:05:c9:0a:c7:d7:d7:47:d6:19:d4:f6:7e:16:1c:
         2c:92:3a:d2:77:c6:65:92:0f:e1:ef:62:e7:3b:81:ce:fa:5c:
         9f:f4:eb:8c:e6:8b:e0:4e:7e:0e:66:40:30:7d:8e:8e:6f:73:
         05:69:2d:ec:b6:aa:16:54:fe:f1:d2:00:56:76:df:a4:98:0c:
         53:69:0c:f2:3a:84:f3:30:b5:0d:fc:b6:d5:b5:04:e1:3b:ed:
         ae:e6:6d:38:61:b1:5a:e5:fe:0f:8d:1a:e3:f0:13:71:cd:0c:
         87:e3:28:45:ea:78:dc:39:56:3b:71:d4:d8:ab:32:03:8d:43:
         4c:d5:28:79:7f:ee:6b:23:41:c0:9c:a5:76:96:4c:1f:c6:76:
         65:c5:c2:6c:bc:7f:6f:25:e3:aa:85:d0:ca:8f:87:30:b7:77:
         68:87:36:43:c4:6e:91:1f:89:7b:1a:ee:2e:1b:bf:48:d0:71:
         4c:0f:0b:49:cc:c6:86:04:e3:21:62:38:57:27:4d:a3:55:6f:
         2b:df:25:6f:9e:18:46:87:5a:09:b5:8e:b1:e4:15:ce:5e:66:
         e4:63:81:49:0b:d6:32:19:8b:47:3c:db:96:8c:49:ce:06:30:
         65:3f:92:d0
-----BEGIN CERTIFICATE-----
MIICrzCCAZcCFA+9SGE5ejTGqJ2qSbr6ZgB45jSSMA0GCSqGSIb3DQEBBQUAME0x
CzAJBgNVBAYTAlhZMSYwJAYDVQQKDB1QeXRob24gU29mdHdhcmUgRm91bmRhdGlv
biBDQTEWMBQGA1UEAwwNb3VyLWNhLXNlcnZlcjAeFw0yMDEwMjAwMjU5NTRaFw0z
MDA4MjkwMjU5NTRaMF8xCzAJBgNVBAYTAlhZMRcwFQYDVQQHDA5DYXN0bGUgQW50
aHJheDEjMCEGA1UECgwaUHl0aG9uIFNvZnR3YXJlIEZvdW5kYXRpb24xEjAQBgNV
BAMMCWxvY2FsaG9zdDCBnzANBgkqhkiG9w0BAQEFAAOBjQAwgYkCgYEA7cu+f06I
fF8D8rOYDDIqF+ouOAFJatCMKt91RAGJx5LJZqc93SPlyVsj28wz9iFaF50HUz4K
nzzO9hQgfFOZCR+J1MU1G8zEVPUDSBee5WCwyzNSyiI3r0/gQP6iWM804PP7cxfZ
AlEbRVahxIjxvhnFyO8Ia4oC5pBweOH34oMCAwEAATANBgkqhkiG9w0BAQUFAAOC
AQEAAy5LS4SoVzNpRQCwEPoBIWQn7wv6lgXJCsfX10fWGdT2fhYcLJI60nfGZZIP
4e9i5zuBzvpcn/TrjOaL4E5+DmZAMH2Ojm9zBWkt7LaqFlT+8dIAVnbfpJgMU2kM
8jqE8zC1Dfy21bUE4TvtruZtOGGxWuX+D40a4/ATcc0Mh+MoRep43DlWO3HU2Ksy
A41DTNUoeX/uayNBwJyldpZMH8Z2ZcXCbLx/byXjqoXQyo+HMLd3aIc2Q8RukR+J
exruLhu/SNBxTA8LSczGhgTjIWI4VydNo1VvK98lb54YRodaCbWOseQVzl5m5GOB
SQvWMhmLRzzbloxJzgYwZT+S0A==
-----END CERTIFICATE-----
