-----BEGIN PRIVATE KEY-----
MIICeQIBADANBgkqhkiG9w0BAQEFAASCAmMwggJfAgEAAoGBAO2+Pfilb9f3KFDs
EoRnseOsHYukNQ2K9Tg+Y6o+YnHdHllFURzpjxnQ64QAEI+IBZfr9bVenmE+znxy
B15kBXCjlYwVjXNd3+2KJGAM6bR4MKTW8QEXzt59JsfWyC564WG6h4m/6kY/m+kP
EIKeULf3wb31lGBmhcN0J6RrlVIZAgMBAAECgYEA5gUakGgAPkOzjhfaEqEBS/ZK
38CQU/oOJ8y1QRH6zY/SvSyDviV7fs7UD3LAkx5XyxVRNZnGQvAxd9Ybqwe6+dKb
VqwvNa2OOnQxcHzZVywuLOWYosrrSlfqffuqHxpjKSsnyHLCR0NyuLwBiUeUifmL
LqQghGA+sd62vUU2gAECQQD/sFX3uH8Bm3tWiWawNLYTL2ZI8R6C5NdZIky70LLu
/KN8d0pRZMsNKpu7oYRzQUShDemlFcLaQBad+1cXSmsZAkEA7ghQor/z69oWE2NF
qKJPDfhsJTM0zMx8TsL0hhnvKGd5Y2Whk9DC8RgbuFuoJu9W2+G5o3DzdaaQGeau
oSX/AQJBAObHMdC1JW09+MTSn2zLJsuKLLgJaZCbHAPHgZrDc71hKe5dfSaZ4uuv
WYCw9+tPLbJv7EKksYpr7f4JrUHIWYECQQCa+Lbm/uoj57zvqnYzsFif09k07v21
SHy2Gp9wn3nhaFzTpdtojUYeCYAiqynzD2gRiAiArI0VT/gJpPKU4FQBAkEA+K64
8rcwzqgvZHqCDSO76V56orZ5yx8HZW6Ha7WJywMPsRCr19neePHbv90xsx+VNCtS
301h6c7EDKpbntBVPg==
-----END PRIVATE KEY-----
Certificate:
    Data:
        Version: 1 (0x0)
        Serial Number:
            0f:bd:48:61:39:7a:34:c6:a8:9d:aa:49:ba:fa:66:00:78:e6:34:93
        Signature Algorithm: sha1WithRSAEncryption
        Issuer: C=XY, O=Python Software Foundation CA, CN=our-ca-server
        Validity
            Not Before: Oct 20 02:59:54 2020 GMT
            Not After : Aug 29 02:59:54 2030 GMT
        Subject: C=XY, L=Castle Anthrax, O=Python Software Foundation, CN=fakehostname
        Subject Public Key Info:
            Public Key Algorithm: rsaEncryption
                RSA Public-Key: (1024 bit)
                Modulus:
                    00:ed:be:3d:f8:a5:6f:d7:f7:28:50:ec:12:84:67:
                    b1:e3:ac:1d:8b:a4:35:0d:8a:f5:38:3e:63:aa:3e:
                    62:71:dd:1e:59:45:51:1c:e9:8f:19:d0:eb:84:00:
                    10:8f:88:05:97:eb:f5:b5:5e:9e:61:3e:ce:7c:72:
                    07:5e:64:05:70:a3:95:8c:15:8d:73:5d:df:ed:8a:
                    24:60:0c:e9:b4:78:30:a4:d6:f1:01:17:ce:de:7d:
                    26:c7:d6:c8:2e:7a:e1:61:ba:87:89:bf:ea:46:3f:
                    9b:e9:0f:10:82:9e:50:b7:f7:c1:bd:f5:94:60:66:
                    85:c3:74:27:a4:6b:95:52:19
                Exponent: 65537 (0x10001)
    Signature Algorithm: sha1WithRSAEncryption
         82:bf:31:da:d5:0e:fd:2a:7b:a9:93:06:36:7b:b1:02:3b:8c:
         fe:a9:ca:7a:97:d9:c4:76:1e:0c:dd:72:fa:e1:8f:04:2c:cf:
         04:3a:a9:37:b4:2d:70:10:c3:a0:1f:d0:99:68:a7:ea:ae:e0:
         a2:ba:03:f4:3c:fd:a0:35:fe:15:71:c1:6c:82:2c:d5:b4:22:
         a8:ba:41:70:59:b6:1e:9b:5a:0b:cb:8b:f5:d2:49:77:68:f9:
         b1:0b:8f:9a:4a:f7:66:62:de:34:16:3a:7e:89:5d:e5:c7:26:
         6b:5f:2b:2d:20:38:b3:48:83:8c:72:82:52:02:84:23:9b:54:
         d0:a1:9b:c0:57:0b:20:39:9c:86:57:2e:aa:9c:53:83:df:dc:
         6f:f2:c9:a9:bc:18:8a:1a:13:61:bc:0a:6a:57:f5:70:76:88:
         06:50:35:24:81:50:30:ea:01:03:4b:37:00:a2:c8:e8:d0:24:
         38:2e:54:f3:ab:41:c9:7f:95:60:e0:a5:bb:b7:9a:a7:75:2c:
         f2:1e:2d:79:83:30:c5:c5:1a:95:91:ac:f1:02:f7:52:52:47:
         15:71:7f:1f:83:5f:96:75:91:26:15:6a:40:f4:f7:d4:d4:eb:
         7f:28:d8:1d:5c:dc:fc:04:c7:24:e6:3f:b5:9f:ac:77:c2:e9:
         89:53:67:3d
-----BEGIN CERTIFICATE-----
MIICsjCCAZoCFA+9SGE5ejTGqJ2qSbr6ZgB45jSTMA0GCSqGSIb3DQEBBQUAME0x
CzAJBgNVBAYTAlhZMSYwJAYDVQQKDB1QeXRob24gU29mdHdhcmUgRm91bmRhdGlv
biBDQTEWMBQGA1UEAwwNb3VyLWNhLXNlcnZlcjAeFw0yMDEwMjAwMjU5NTRaFw0z
MDA4MjkwMjU5NTRaMGIxCzAJBgNVBAYTAlhZMRcwFQYDVQQHDA5DYXN0bGUgQW50
aHJheDEjMCEGA1UECgwaUHl0aG9uIFNvZnR3YXJlIEZvdW5kYXRpb24xFTATBgNV
BAMMDGZha2Vob3N0bmFtZTCBnzANBgkqhkiG9w0BAQEFAAOBjQAwgYkCgYEA7b49
+KVv1/coUOwShGex46wdi6Q1DYr1OD5jqj5icd0eWUVRHOmPGdDrhAAQj4gFl+v1
tV6eYT7OfHIHXmQFcKOVjBWNc13f7YokYAzptHgwpNbxARfO3n0mx9bILnrhYbqH
ib/qRj+b6Q8Qgp5Qt/fBvfWUYGaFw3QnpGuVUhkCAwEAATANBgkqhkiG9w0BAQUF
AAOCAQEAgr8x2tUO/Sp7qZMGNnuxAjuM/qnKepfZxHYeDN1y+uGPBCzPBDqpN7Qt
cBDDoB/QmWin6q7goroD9Dz9oDX+FXHBbIIs1bQiqLpBcFm2HptaC8uL9dJJd2j5
sQuPmkr3ZmLeNBY6fold5ccma18rLSA4s0iDjHKCUgKEI5tU0KGbwFcLIDmchlcu
qpxTg9/cb/LJqbwYihoTYbwKalf1cHaIBlA1JIFQMOoBA0s3AKLI6NAkOC5U86tB
yX+VYOClu7eap3Us8h4teYMwxcUalZGs8QL3UlJHFXF/H4NflnWRJhVqQPT31NTr
fyjYHVzc/ATHJOY/tZ+sd8LpiVNnPQ==
-----END CERTIFICATE-----
