Certificate:
    Data:
        Version: 3 (0x2)
        Serial Number:
            0f:bd:48:61:39:7a:34:c6:a8:9d:aa:49:ba:fa:66:00:78:e6:34:91
        Signature Algorithm: sha1WithRSAEncryption
        Issuer: C=XY, O=Python Software Foundation CA, CN=our-ca-server
        Validity
            Not Before: Oct 20 02:59:54 2020 GMT
            Not After : Oct 18 02:59:54 2030 GMT
        Subject: C=XY, O=Python Software Foundation CA, CN=our-ca-server
        Subject Public Key Info:
            Public Key Algorithm: rsaEncryption
                RSA Public-Key: (2048 bit)
                Modulus:
                    00:9f:56:89:f5:5b:82:01:0e:00:00:42:01:f8:88:
                    45:7f:7f:b1:8f:99:56:02:10:c5:14:4c:4d:fd:0c:
                    6b:46:c9:c7:11:56:71:7b:6f:2d:92:9a:46:bd:c5:
                    c0:60:d0:92:14:45:92:95:0a:43:2d:4e:7e:01:4a:
                    70:14:80:91:2f:e7:09:22:65:b2:51:de:b1:f4:7e:
                    1e:51:a7:2e:69:6b:f8:16:c4:a7:5f:22:89:e4:f8:
                    f1:f9:07:ad:69:8f:23:81:2c:b0:8c:91:25:a4:3e:
                    3d:19:3c:26:8a:0e:5e:59:11:ce:d0:60:56:8f:36:
                    10:cc:a1:ed:b1:49:7e:7b:fa:96:4f:52:58:41:36:
                    9a:e3:17:ba:73:aa:aa:0f:d9:3d:e6:fb:da:c4:63:
                    3a:a9:9f:36:1e:be:75:1e:27:e9:60:02:56:e9:d1:
                    40:bb:b7:69:6e:9f:26:69:dd:64:1e:20:42:5c:ac:
                    35:13:d6:a0:62:93:6b:95:eb:4a:bf:6c:33:ee:c9:
                    e5:83:06:a0:34:a2:34:3c:fb:47:1f:9f:c7:f5:0f:
                    b1:7f:79:8f:57:07:68:4c:9c:ae:9e:ec:da:23:f2:
                    fe:1e:bd:0a:19:8d:64:ac:a9:2b:0b:11:af:7a:d6:
                    4d:49:0e:36:02:84:4d:00:de:16:3b:e5:09:6d:38:
                    2d:57
                Exponent: 65537 (0x10001)
        X509v3 extensions:
            X509v3 Subject Key Identifier: 
                06:25:7B:96:8E:2A:F0:9A:89:2A:E8:99:B6:32:90:44:4C:5D:DA:2C
            X509v3 Authority Key Identifier: 
                keyid:06:25:7B:96:8E:2A:F0:9A:89:2A:E8:99:B6:32:90:44:4C:5D:DA:2C

            X509v3 Basic Constraints: 
                CA:TRUE
    Signature Algorithm: sha1WithRSAEncryption
         56:f9:09:1a:7a:b9:9e:fe:02:f0:92:bd:79:06:c2:56:33:fd:
         e7:87:63:56:67:ad:8a:b8:2a:f1:9d:e7:ef:06:f8:b6:2e:1f:
         17:04:5f:fa:b6:18:84:25:07:b3:e9:a7:43:b6:0e:a6:94:65:
         2f:bc:34:1a:b1:92:44:ea:a2:4c:94:53:26:bb:e0:2d:75:bb:
         53:74:67:b5:58:b1:5f:7c:67:62:76:7b:24:50:18:d0:c9:64:
         b5:18:02:26:d7:0b:74:84:63:29:d9:5d:14:ac:d6:47:3a:bd:
         b2:31:12:41:e0:78:4e:a3:5a:42:01:15:da:34:f5:ee:48:cf:
         af:b7:09:7c:b9:a6:cd:8b:d6:77:60:1f:0a:09:ab:e0:67:aa:
         7d:90:7e:8e:7e:f8:c3:87:ef:22:54:31:62:a8:05:24:0c:99:
         88:59:6a:c5:91:2b:8e:d1:d5:2d:c2:25:cd:a5:e5:14:99:e5:
         81:81:f7:5c:af:1d:cd:39:b4:a6:da:ef:ce:ad:f5:d3:18:bb:
         4f:99:a7:b5:69:8d:f1:dd:a2:ea:c3:b3:6d:14:a6:0a:4b:09:
         ea:83:74:8a:da:ca:53:68:86:8a:4d:ac:33:9e:14:f5:d9:f8:
         c4:f1:4d:09:f7:6e:55:7f:ca:ac:fc:57:13:4a:e1:f3:b3:ac:
         30:1d:74:56
-----BEGIN CERTIFICATE-----
MIIDeDCCAmCgAwIBAgIUD71IYTl6NMaonapJuvpmAHjmNJEwDQYJKoZIhvcNAQEF
BQAwTTELMAkGA1UEBhMCWFkxJjAkBgNVBAoMHVB5dGhvbiBTb2Z0d2FyZSBGb3Vu
ZGF0aW9uIENBMRYwFAYDVQQDDA1vdXItY2Etc2VydmVyMB4XDTIwMTAyMDAyNTk1
NFoXDTMwMTAxODAyNTk1NFowTTELMAkGA1UEBhMCWFkxJjAkBgNVBAoMHVB5dGhv
biBTb2Z0d2FyZSBGb3VuZGF0aW9uIENBMRYwFAYDVQQDDA1vdXItY2Etc2VydmVy
MIIBIjANBgkqhkiG9w0BAQEFAAOCAQ8AMIIBCgKCAQEAn1aJ9VuCAQ4AAEIB+IhF
f3+xj5lWAhDFFExN/QxrRsnHEVZxe28tkppGvcXAYNCSFEWSlQpDLU5+AUpwFICR
L+cJImWyUd6x9H4eUacuaWv4FsSnXyKJ5Pjx+QetaY8jgSywjJElpD49GTwmig5e
WRHO0GBWjzYQzKHtsUl+e/qWT1JYQTaa4xe6c6qqD9k95vvaxGM6qZ82Hr51Hifp
YAJW6dFAu7dpbp8mad1kHiBCXKw1E9agYpNrletKv2wz7snlgwagNKI0PPtHH5/H
9Q+xf3mPVwdoTJyunuzaI/L+Hr0KGY1krKkrCxGvetZNSQ42AoRNAN4WO+UJbTgt
VwIDAQABo1AwTjAdBgNVHQ4EFgQUBiV7lo4q8JqJKuiZtjKQRExd2iwwHwYDVR0j
BBgwFoAUBiV7lo4q8JqJKuiZtjKQRExd2iwwDAYDVR0TBAUwAwEB/zANBgkqhkiG
9w0BAQUFAAOCAQEAVvkJGnq5nv4C8JK9eQbCVjP954djVmetirgq8Z3n7wb4ti4f
FwRf+rYYhCUHs+mnQ7YOppRlL7w0GrGSROqiTJRTJrvgLXW7U3RntVixX3xnYnZ7
JFAY0MlktRgCJtcLdIRjKdldFKzWRzq9sjESQeB4TqNaQgEV2jT17kjPr7cJfLmm
zYvWd2AfCgmr4GeqfZB+jn74w4fvIlQxYqgFJAyZiFlqxZErjtHVLcIlzaXlFJnl
gYH3XK8dzTm0ptrvzq310xi7T5mntWmN8d2i6sOzbRSmCksJ6oN0itrKU2iGik2s
M54U9dn4xPFNCfduVX/KrPxXE0rh87OsMB10Vg==
-----END CERTIFICATE-----
